target datalayout = "e-m:e-p270:32:32-p271:32:32-p272:64:64-i64:64-i128:128-f80:128-n8:16:32:64-S128"
target triple = "x86_64-pc-linux-gnu"

%struct.anon = type { i64, ptr }
%struct.AVOption = type { ptr, ptr, i32, i32, %union.anon, double, double, i32, ptr }
%union.anon = type { i64 }
%struct.AVOptionArrayDef = type { ptr, i32, i32, i8 }

; Function Attrs: nounwind uwtable
define internal ptr @opt_array_pelem(ptr noundef %0, ptr noundef %1, i32 noundef %2) #0 {
  %4 = alloca ptr, align 8
  %5 = alloca ptr, align 8
  %6 = alloca i32, align 4
  store ptr %0, ptr %4, align 8, !tbaa !8
  store ptr %1, ptr %5, align 8, !tbaa !4
  store i32 %2, ptr %6, align 4, !tbaa !20
  %7 = load ptr, ptr %5, align 8, !tbaa !4
  %8 = load i32, ptr %6, align 4, !tbaa !20
  %9 = zext i32 %8 to i64
  %10 = load ptr, ptr %4, align 8, !tbaa !8
  %11 = getelementptr inbounds nuw %struct.AVOption, ptr %10, i32 0, i32 3
  %12 = load i32, ptr %11, align 4, !tbaa !21
  %13 = and i32 %12, -65537
  %14 = zext i32 %13 to i64
  %15 = getelementptr inbounds nuw [21 x %struct.anon], ptr @opt_type_desc, i64 0, i64 %14
  %16 = getelementptr inbounds nuw %struct.anon, ptr %15, i32 0, i32 0
  %17 = load i64, ptr %16, align 16, !tbaa !38
  %18 = mul i64 %9, %17
  %19 = getelementptr inbounds nuw i8, ptr %7, i64 %18
  ret ptr %19
}

; Function Attrs: nounwind uwtable
define internal zeroext i8 @opt_array_sep(ptr noundef %0) #0 {
  %2 = alloca ptr, align 8
  %3 = alloca ptr, align 8
  store ptr %0, ptr %2, align 8, !tbaa !8
  call void @llvm.lifetime.start.p0(i64 8, ptr %3) #11
  %4 = load ptr, ptr %2, align 8, !tbaa !8
  %5 = getelementptr inbounds nuw %struct.AVOption, ptr %4, i32 0, i32 4
  %6 = load ptr, ptr %5, align 8, !tbaa !35
  store ptr %6, ptr %3, align 8, !tbaa !36
  %7 = load ptr, ptr %3, align 8, !tbaa !36
  %8 = icmp ne ptr %7, null
  br i1 %8, label %9, label %20

9:                                                ; preds = %1
  %10 = load ptr, ptr %3, align 8, !tbaa !36
  %11 = getelementptr inbounds nuw %struct.AVOptionArrayDef, ptr %10, i32 0, i32 3
  %12 = load i8, ptr %11, align 8, !tbaa !96
  %13 = sext i8 %12 to i32
  %14 = icmp ne i32 %13, 0
  br i1 %14, label %15, label %20

15:                                               ; preds = %9
  %16 = load ptr, ptr %3, align 8, !tbaa !36
  %17 = getelementptr inbounds nuw %struct.AVOptionArrayDef, ptr %16, i32 0, i32 3
  %18 = load i8, ptr %17, align 8, !tbaa !96
  %19 = sext i8 %18 to i32
  br label %21

20:                                               ; preds = %9, %1
  br label %21

21:                                               ; preds = %20, %15
  %22 = phi i32 [ %19, %15 ], [ 44, %20 ]
  %23 = trunc i32 %22 to i8
  call void @llvm.lifetime.end.p0(i64 8, ptr %3) #11
  ret i8 %23
}

; Function Attrs: nounwind uwtable
define internal ptr @opt_array_pcount(ptr noundef %0) #0 {
  %2 = alloca ptr, align 8
  store ptr %0, ptr %2, align 8, !tbaa !4
  %3 = load ptr, ptr %2, align 8, !tbaa !4
  %4 = getelementptr inbounds ptr, ptr %3, i64 1
  ret ptr %4
}

; Function Attrs: nounwind uwtable
define internal i32 @opt_get_array(ptr noundef %0, ptr noundef %1, ptr noundef %2) #0 {
  %4 = alloca i32, align 4
  %5 = alloca ptr, align 8
  %6 = alloca ptr, align 8
  %7 = alloca ptr, align 8
  %8 = alloca i32, align 4
  %9 = alloca i8, align 1
  %10 = alloca ptr, align 8
  %11 = alloca i64, align 8
  %12 = alloca i32, align 4
  %13 = alloca i32, align 4
  %14 = alloca i32, align 4
  %15 = alloca [128 x i8], align 16
  %16 = alloca ptr, align 8
  %17 = alloca i64, align 8
  %18 = alloca i32, align 4
  %19 = alloca i8, align 1
  store ptr %0, ptr %5, align 8, !tbaa !8
  store ptr %1, ptr %6, align 8, !tbaa !4
  store ptr %2, ptr %7, align 8, !tbaa !63
  call void @llvm.lifetime.start.p0(i64 4, ptr %8) #11
  %20 = load ptr, ptr %6, align 8, !tbaa !4
  %21 = call ptr @opt_array_pcount(ptr noundef %20)
  %22 = load i32, ptr %21, align 4, !tbaa !20
  store i32 %22, ptr %8, align 4, !tbaa !20
  call void @llvm.lifetime.start.p0(i64 1, ptr %9) #11
  %23 = load ptr, ptr %5, align 8, !tbaa !8
  %24 = call zeroext i8 @opt_array_sep(ptr noundef %23)
  store i8 %24, ptr %9, align 1, !tbaa !35
  call void @llvm.lifetime.start.p0(i64 8, ptr %10) #11
  store ptr null, ptr %10, align 8, !tbaa !19
  call void @llvm.lifetime.start.p0(i64 8, ptr %11) #11
  store i64 0, ptr %11, align 8, !tbaa !39
  call void @llvm.lifetime.start.p0(i64 4, ptr %12) #11
  %25 = load ptr, ptr %7, align 8, !tbaa !63
  store ptr null, ptr %25, align 8, !tbaa !19
  call void @llvm.lifetime.start.p0(i64 4, ptr %13) #11
  store i32 0, ptr %13, align 4, !tbaa !20
  br label %26

26:                                               ; preds = %150, %3
  %27 = load i32, ptr %13, align 4, !tbaa !20
  %28 = load i32, ptr %8, align 4, !tbaa !20
  %29 = icmp ult i32 %27, %28
  br i1 %29, label %31, label %30

30:                                               ; preds = %26
  store i32 2, ptr %14, align 4
  br label %153

31:                                               ; preds = %26
  call void @llvm.lifetime.start.p0(i64 128, ptr %15) #11
  call void @llvm.lifetime.start.p0(i64 8, ptr %16) #11
  %32 = getelementptr inbounds [128 x i8], ptr %15, i64 0, i64 0
  store ptr %32, ptr %16, align 8, !tbaa !19
  call void @llvm.lifetime.start.p0(i64 8, ptr %17) #11
  %33 = load ptr, ptr %5, align 8, !tbaa !8
  %34 = load ptr, ptr %5, align 8, !tbaa !8
  %35 = load ptr, ptr %6, align 8, !tbaa !4
  %36 = load ptr, ptr %35, align 8, !tbaa !4
  %37 = load i32, ptr %13, align 4, !tbaa !20
  %38 = call ptr @opt_array_pelem(ptr noundef %34, ptr noundef %36, i32 noundef %37)
  %39 = call i32 @opt_get_elem(ptr noundef %33, ptr noundef %16, i64 noundef 128, ptr noundef %38, i32 noundef 0)
  store i32 %39, ptr %12, align 4, !tbaa !20
  %40 = load i32, ptr %12, align 4, !tbaa !20
  %41 = icmp slt i32 %40, 0
  br i1 %41, label %42, label %43

42:                                               ; preds = %31
  br label %136

43:                                               ; preds = %31
  %44 = load ptr, ptr %16, align 8, !tbaa !19
  %45 = call i64 @strlen(ptr noundef %44) #12
  store i64 %45, ptr %17, align 8, !tbaa !39
  %46 = load i64, ptr %17, align 8, !tbaa !39
  %47 = load i32, ptr %13, align 4, !tbaa !20
  %48 = icmp ne i32 %47, 0
  %49 = xor i1 %48, true
  %50 = xor i1 %49, true
  %51 = zext i1 %50 to i32
  %52 = sext i32 %51 to i64
  %53 = sub i64 9223372036854775807, %52
  %54 = icmp ugt i64 %46, %53
  br i1 %54, label %69, label %55

55:                                               ; preds = %43
  %56 = load i32, ptr %13, align 4, !tbaa !20
  %57 = icmp ne i32 %56, 0
  %58 = xor i1 %57, true
  %59 = xor i1 %58, true
  %60 = zext i1 %59 to i32
  %61 = sext i32 %60 to i64
  %62 = load i64, ptr %17, align 8, !tbaa !39
  %63 = mul i64 %62, 2
  %64 = add i64 %61, %63
  %65 = load i64, ptr %11, align 8, !tbaa !39
  %66 = sub i64 -1, %65
  %67 = sub i64 %66, 1
  %68 = icmp ugt i64 %64, %67
  br i1 %68, label %69, label %70

69:                                               ; preds = %55, %43
  store i32 -34, ptr %12, align 4, !tbaa !20
  br label %136

70:                                               ; preds = %55
  %71 = load i64, ptr %11, align 8, !tbaa !39
  %72 = add i64 %71, 1
  %73 = load i64, ptr %17, align 8, !tbaa !39
  %74 = mul i64 %73, 2
  %75 = add i64 %72, %74
  %76 = load i32, ptr %13, align 4, !tbaa !20
  %77 = icmp ne i32 %76, 0
  %78 = xor i1 %77, true
  %79 = xor i1 %78, true
  %80 = zext i1 %79 to i32
  %81 = sext i32 %80 to i64
  %82 = add i64 %75, %81
  %83 = call i32 @av_reallocp(ptr noundef %10, i64 noundef %82)
  store i32 %83, ptr %12, align 4, !tbaa !20
  %84 = load i32, ptr %12, align 4, !tbaa !20
  %85 = icmp slt i32 %84, 0
  br i1 %85, label %86, label %87

86:                                               ; preds = %70
  br label %136

87:                                               ; preds = %70
  %88 = load i32, ptr %13, align 4, !tbaa !20
  %89 = icmp ne i32 %88, 0
  br i1 %89, label %90, label %96

90:                                               ; preds = %87
  %91 = load i8, ptr %9, align 1, !tbaa !35
  %92 = load ptr, ptr %10, align 8, !tbaa !19
  %93 = load i64, ptr %11, align 8, !tbaa !39
  %94 = add i64 %93, 1
  store i64 %94, ptr %11, align 8, !tbaa !39
  %95 = getelementptr inbounds nuw i8, ptr %92, i64 %93
  store i8 %91, ptr %95, align 1, !tbaa !35
  br label %96

96:                                               ; preds = %90, %87
  call void @llvm.lifetime.start.p0(i64 4, ptr %18) #11
  store i32 0, ptr %18, align 4, !tbaa !20
  br label %97

97:                                               ; preds = %129, %96
  %98 = load i32, ptr %18, align 4, !tbaa !20
  %99 = zext i32 %98 to i64
  %100 = load i64, ptr %17, align 8, !tbaa !39
  %101 = icmp ult i64 %99, %100
  br i1 %101, label %103, label %102

102:                                              ; preds = %97
  store i32 6, ptr %14, align 4
  call void @llvm.lifetime.end.p0(i64 4, ptr %18) #11
  br label %132

103:                                              ; preds = %97
  call void @llvm.lifetime.start.p0(i64 1, ptr %19) #11
  %104 = load ptr, ptr %16, align 8, !tbaa !19
  %105 = load i32, ptr %18, align 4, !tbaa !20
  %106 = zext i32 %105 to i64
  %107 = getelementptr inbounds nuw i8, ptr %104, i64 %106
  %108 = load i8, ptr %107, align 1, !tbaa !35
  store i8 %108, ptr %19, align 1, !tbaa !35
  %109 = load i8, ptr %19, align 1, !tbaa !35
  %110 = zext i8 %109 to i32
  %111 = load i8, ptr %9, align 1, !tbaa !35
  %112 = zext i8 %111 to i32
  %113 = icmp eq i32 %110, %112
  br i1 %113, label %118, label %114

114:                                              ; preds = %103
  %115 = load i8, ptr %19, align 1, !tbaa !35
  %116 = zext i8 %115 to i32
  %117 = icmp eq i32 %116, 92
  br i1 %117, label %118, label %123

118:                                              ; preds = %114, %103
  %119 = load ptr, ptr %10, align 8, !tbaa !19
  %120 = load i64, ptr %11, align 8, !tbaa !39
  %121 = add i64 %120, 1
  store i64 %121, ptr %11, align 8, !tbaa !39
  %122 = getelementptr inbounds nuw i8, ptr %119, i64 %120
  store i8 92, ptr %122, align 1, !tbaa !35
  br label %123

123:                                              ; preds = %118, %114
  %124 = load i8, ptr %19, align 1, !tbaa !35
  %125 = load ptr, ptr %10, align 8, !tbaa !19
  %126 = load i64, ptr %11, align 8, !tbaa !39
  %127 = add i64 %126, 1
  store i64 %127, ptr %11, align 8, !tbaa !39
  %128 = getelementptr inbounds nuw i8, ptr %125, i64 %126
  store i8 %124, ptr %128, align 1, !tbaa !35
  call void @llvm.lifetime.end.p0(i64 1, ptr %19) #11
  br label %129

129:                                              ; preds = %123
  %130 = load i32, ptr %18, align 4, !tbaa !20
  %131 = add i32 %130, 1
  store i32 %131, ptr %18, align 4, !tbaa !20
  br label %97, !llvm.loop !74

132:                                              ; preds = %102
  %133 = load ptr, ptr %10, align 8, !tbaa !19
  %134 = load i64, ptr %11, align 8, !tbaa !39
  %135 = getelementptr inbounds nuw i8, ptr %133, i64 %134
  store i8 0, ptr %135, align 1, !tbaa !35
  br label %136

136:                                              ; preds = %132, %86, %69, %42
  %137 = load ptr, ptr %16, align 8, !tbaa !19
  %138 = getelementptr inbounds [128 x i8], ptr %15, i64 0, i64 0
  %139 = icmp ne ptr %137, %138
  br i1 %139, label %140, label %141

140:                                              ; preds = %136
  call void @av_freep(ptr noundef %16)
  br label %141

141:                                              ; preds = %140, %136
  %142 = load i32, ptr %12, align 4, !tbaa !20
  %143 = icmp slt i32 %142, 0
  br i1 %143, label %144, label %146

144:                                              ; preds = %141
  call void @av_freep(ptr noundef %10)
  %145 = load i32, ptr %12, align 4, !tbaa !20
  store i32 %145, ptr %4, align 4
  store i32 1, ptr %14, align 4
  br label %147

146:                                              ; preds = %141
  store i32 0, ptr %14, align 4
  br label %147

147:                                              ; preds = %146, %144
  call void @llvm.lifetime.end.p0(i64 8, ptr %17) #11
  call void @llvm.lifetime.end.p0(i64 8, ptr %16) #11
  call void @llvm.lifetime.end.p0(i64 128, ptr %15) #11
  %148 = load i32, ptr %14, align 4
  switch i32 %148, label %153 [
    i32 0, label %149
  ]

149:                                              ; preds = %147
  br label %150

150:                                              ; preds = %149
  %151 = load i32, ptr %13, align 4, !tbaa !20
  %152 = add i32 %151, 1
  store i32 %152, ptr %13, align 4, !tbaa !20
  br label %26, !llvm.loop !75

153:                                              ; preds = %147, %30
  call void @llvm.lifetime.end.p0(i64 4, ptr %13) #11
  %154 = load i32, ptr %14, align 4
  switch i32 %154, label %158 [
    i32 2, label %155
  ]

155:                                              ; preds = %153
  %156 = load ptr, ptr %10, align 8, !tbaa !19
  %157 = load ptr, ptr %7, align 8, !tbaa !63
  store ptr %156, ptr %157, align 8, !tbaa !19
  store i32 0, ptr %4, align 4
  store i32 1, ptr %14, align 4
  br label %158

158:                                              ; preds = %155, %153
  call void @llvm.lifetime.end.p0(i64 4, ptr %12) #11
  call void @llvm.lifetime.end.p0(i64 8, ptr %11) #11
  call void @llvm.lifetime.end.p0(i64 8, ptr %10) #11
  call void @llvm.lifetime.end.p0(i64 1, ptr %9) #11
  call void @llvm.lifetime.end.p0(i64 4, ptr %8) #11
  %159 = load i32, ptr %4, align 4
  ret i32 %159
}