; Function Attrs: nounwind uwtable
define internal fastcc range(i32 -2147483648, 1) i32 @opt_get_array(ptr noundef nonnull readonly captures(none) %0, ptr noundef readonly captures(none) %1, ptr noundef writeonly captures(none) initializes((0, 8)) %2) unnamed_addr #2 {
  %4 = alloca ptr, align 8
  %5 = alloca [128 x i8], align 16
  %6 = alloca ptr, align 8
  %7 = getelementptr inbounds nuw i8, ptr %1, i64 8
  %8 = load i32, ptr %7, align 4, !tbaa !26
  %9 = getelementptr i8, ptr %0, i64 24
  %.val = load ptr, ptr %9, align 8, !tbaa !29
  %.not.i = icmp eq ptr %.val, null
  br i1 %.not.i, label %opt_array_sep.exit, label %10

10:                                               ; preds = %3
  %11 = getelementptr inbounds nuw i8, ptr %.val, i64 16
  %12 = load i8, ptr %11, align 8, !tbaa !31
  %.not5.i = icmp eq i8 %12, 0
  %spec.select.i = select i1 %.not5.i, i8 44, i8 %12
  br label %opt_array_sep.exit

opt_array_sep.exit:                               ; preds = %3, %10
  %13 = phi i8 [ 44, %3 ], [ %spec.select.i, %10 ]
  call void @llvm.lifetime.start.p0(i64 8, ptr nonnull %4) #18
  store ptr null, ptr %4, align 8, !tbaa !33
  store ptr null, ptr %2, align 8, !tbaa !33
  %.not5664.not = icmp eq i32 %8, 0
  br i1 %.not5664.not, label %.thread60, label %.lr.ph67

.lr.ph67:                                         ; preds = %opt_array_sep.exit
  %14 = getelementptr i8, ptr %0, i64 20
  %wide.trip.count = zext i32 %8 to i64
  br label %15

15:                                               ; preds = %.lr.ph67, %72
  %indvars.iv = phi i64 [ 0, %.lr.ph67 ], [ %indvars.iv.next, %72 ]
  %.04366 = phi i64 [ 0, %.lr.ph67 ], [ %.144, %72 ]
  call void @llvm.lifetime.start.p0(i64 128, ptr nonnull %5) #18
  call void @llvm.lifetime.start.p0(i64 8, ptr nonnull %6) #18
  store ptr %5, ptr %6, align 8, !tbaa !33
  %16 = load ptr, ptr %1, align 8, !tbaa !19
  %.val57 = load i32, ptr %14, align 4, !tbaa !18
  %17 = and i32 %.val57, -65537
  %18 = zext i32 %17 to i64
  %19 = getelementptr inbounds nuw [21 x %struct.anon], ptr @opt_type_desc, i64 0, i64 %18
  %20 = load i64, ptr %19, align 16, !tbaa !30
  %21 = mul i64 %20, %indvars.iv
  %22 = getelementptr inbounds nuw i8, ptr %16, i64 %21
  %23 = call fastcc i32 @opt_get_elem(ptr noundef %0, ptr noundef %6, ptr noundef %22, i32 noundef 0)
  %24 = icmp slt i32 %23, 0
  br i1 %24, label %67, label %25

25:                                               ; preds = %15
  %26 = load ptr, ptr %6, align 8, !tbaa !33
  %27 = call i64 @strlen(ptr noundef nonnull dereferenceable(1) %26) #19
  %28 = icmp ne i64 %indvars.iv, 0
  %29 = zext i1 %28 to i64
  %30 = select i1 %28, i64 9223372036854775806, i64 9223372036854775807
  %31 = icmp ugt i64 %27, %30
  br i1 %31, label %67, label %32

32:                                               ; preds = %25
  %33 = shl nuw i64 %27, 1
  %34 = or disjoint i64 %33, %29
  %35 = sub i64 -2, %.04366
  %36 = icmp ugt i64 %34, %35
  br i1 %36, label %67, label %37

37:                                               ; preds = %32
  %38 = add i64 %.04366, 1
  %39 = add i64 %38, %29
  %40 = add i64 %39, %33
  %41 = call i32 @av_reallocp(ptr noundef nonnull %4, i64 noundef %40) #18
  %42 = icmp slt i32 %41, 0
  br i1 %42, label %67, label %43

43:                                               ; preds = %37
  br i1 %28, label %44, label %47

44:                                               ; preds = %43
  %45 = load ptr, ptr %4, align 8, !tbaa !33
  %46 = getelementptr inbounds nuw i8, ptr %45, i64 %.04366
  store i8 %13, ptr %46, align 1, !tbaa !29
  br label %47

47:                                               ; preds = %44, %43
  %.245 = phi i64 [ %38, %44 ], [ %.04366, %43 ]
  %.not68 = icmp eq i64 %27, 0
  br i1 %.not68, label %._crit_edge, label %.lr.ph

._crit_edge:                                      ; preds = %60, %47
  %.346.lcssa = phi i64 [ %.245, %47 ], [ %62, %60 ]
  %48 = load ptr, ptr %4, align 8, !tbaa !33
  %49 = getelementptr inbounds nuw i8, ptr %48, i64 %.346.lcssa
  store i8 0, ptr %49, align 1, !tbaa !29
  br label %67

.lr.ph:                                           ; preds = %47, %60
  %50 = phi i64 [ %65, %60 ], [ 0, %47 ]
  %.04263 = phi i32 [ %64, %60 ], [ 0, %47 ]
  %.34662 = phi i64 [ %62, %60 ], [ %.245, %47 ]
  %51 = load ptr, ptr %6, align 8, !tbaa !33
  %52 = getelementptr inbounds nuw i8, ptr %51, i64 %50
  %53 = load i8, ptr %52, align 1, !tbaa !29
  %54 = icmp eq i8 %53, %13
  %55 = icmp eq i8 %53, 92
  %or.cond = or i1 %54, %55
  br i1 %or.cond, label %56, label %60

56:                                               ; preds = %.lr.ph
  %57 = load ptr, ptr %4, align 8, !tbaa !33
  %58 = add i64 %.34662, 1
  %59 = getelementptr inbounds nuw i8, ptr %57, i64 %.34662
  store i8 92, ptr %59, align 1, !tbaa !29
  br label %60

60:                                               ; preds = %.lr.ph, %56
  %.4 = phi i64 [ %58, %56 ], [ %.34662, %.lr.ph ]
  %61 = load ptr, ptr %4, align 8, !tbaa !33
  %62 = add i64 %.4, 1
  %63 = getelementptr inbounds nuw i8, ptr %61, i64 %.4
  store i8 %53, ptr %63, align 1, !tbaa !29
  %64 = add i32 %.04263, 1
  %65 = zext i32 %64 to i64
  %66 = icmp ugt i64 %27, %65
  br i1 %66, label %.lr.ph, label %._crit_edge, !llvm.loop !64

67:                                               ; preds = %25, %32, %37, %15, %._crit_edge
  %.050 = phi i32 [ %23, %15 ], [ %41, %37 ], [ %41, %._crit_edge ], [ -34, %32 ], [ -34, %25 ]
  %.144 = phi i64 [ %.04366, %15 ], [ %.04366, %37 ], [ %.346.lcssa, %._crit_edge ], [ %.04366, %32 ], [ %.04366, %25 ]
  %68 = load ptr, ptr %6, align 8, !tbaa !33
  %.not = icmp eq ptr %68, %5
  br i1 %.not, label %70, label %69

69:                                               ; preds = %67
  call void @av_freep(ptr noundef nonnull %6) #18
  br label %70

70:                                               ; preds = %69, %67
  %71 = icmp sgt i32 %.050, -1
  br i1 %71, label %72, label %73

72:                                               ; preds = %70
  call void @llvm.lifetime.end.p0(i64 8, ptr nonnull %6) #18
  call void @llvm.lifetime.end.p0(i64 128, ptr nonnull %5) #18
  %indvars.iv.next = add nuw nsw i64 %indvars.iv, 1
  %exitcond.not = icmp eq i64 %indvars.iv.next, %wide.trip.count
  br i1 %exitcond.not, label %.thread60.loopexit, label %15, !llvm.loop !65

73:                                               ; preds = %70
  call void @av_freep(ptr noundef nonnull %4) #18
  call void @llvm.lifetime.end.p0(i64 8, ptr nonnull %6) #18
  call void @llvm.lifetime.end.p0(i64 128, ptr nonnull %5) #18
  br label %75

.thread60.loopexit:                               ; preds = %72
  %.pre = load ptr, ptr %4, align 8, !tbaa !33
  br label %.thread60

.thread60:                                        ; preds = %.thread60.loopexit, %opt_array_sep.exit
  %74 = phi ptr [ %.pre, %.thread60.loopexit ], [ null, %opt_array_sep.exit ]
  store ptr %74, ptr %2, align 8, !tbaa !33
  br label %75

75:                                               ; preds = %73, %.thread60
  %.3 = phi i32 [ 0, %.thread60 ], [ %.050, %73 ]
  call void @llvm.lifetime.end.p0(i64 8, ptr nonnull %4) #18
  ret i32 %.3
}